target datalayout = "e-m:e-p270:32:32-p271:32:32-p272:64:64-i64:64-i128:128-f80:128-n8:16:32:64-S128"
target triple = "x86_64-pc-linux-gnu"

@.str.12 = private unnamed_addr constant [10 x i8] c"ML-DSA-44\00", align 1
@.str.13 = private unnamed_addr constant [10 x i8] c"ML-DSA-65\00", align 1
@.str.14 = private unnamed_addr constant [10 x i8] c"ML-DSA-87\00", align 1
@.str.15 = private unnamed_addr constant [10 x i8] c"ML-DSA-33\00", align 1

; Function Attrs: inlinehint nounwind uwtable
define internal zeroext i16 @__uint16_identity(i16 noundef zeroext %0) #3 {
  %2 = alloca i16, align 2
  store i16 %0, ptr %2, align 2, !tbaa !39
  %3 = load i16, ptr %2, align 2, !tbaa !39
  ret i16 %3
}

; Function Attrs: inlinehint nounwind uwtable
define internal ptr @OPENSSL_load_u16_le(ptr noundef %0, ptr noundef %1) #3 {
  %3 = alloca ptr, align 8
  %4 = alloca ptr, align 8
  %5 = alloca i16, align 2
  store ptr %0, ptr %3, align 8, !tbaa !41
  store ptr %1, ptr %4, align 8, !tbaa !11
  call void @llvm.lifetime.start.p0(i64 2, ptr %5) #6
  %6 = load ptr, ptr %4, align 8, !tbaa !11
  call void @llvm.memcpy.p0.p0.i64(ptr align 2 %5, ptr align 1 %6, i64 2, i1 false)
  %7 = load i16, ptr %5, align 2, !tbaa !39
  %8 = call zeroext i16 @__uint16_identity(i16 noundef zeroext %7)
  %9 = load ptr, ptr %3, align 8, !tbaa !41
  store i16 %8, ptr %9, align 2, !tbaa !39
  %10 = load ptr, ptr %4, align 8, !tbaa !11
  %11 = getelementptr inbounds i8, ptr %10, i64 2
  call void @llvm.lifetime.end.p0(i64 2, ptr %5) #6
  ret ptr %11
}

; Function Attrs: nounwind uwtable
define internal i32 @select_keytype_and_size(ptr noundef %0, ptr noundef %1, ptr noundef %2, ptr noundef %3, i32 noundef %4) #0 {
  %6 = alloca i32, align 4
  %7 = alloca ptr, align 8
  %8 = alloca ptr, align 8
  %9 = alloca ptr, align 8
  %10 = alloca ptr, align 8
  %11 = alloca i32, align 4
  %12 = alloca i16, align 2
  %13 = alloca i16, align 2
  %14 = alloca i32, align 4
  store ptr %0, ptr %7, align 8, !tbaa !23
  store ptr %1, ptr %8, align 8, !tbaa !21
  store ptr %2, ptr %9, align 8, !tbaa !23
  store ptr %3, ptr %10, align 8, !tbaa !21
  store i32 %4, ptr %11, align 4, !tbaa !25
  call void @llvm.lifetime.start.p0(i64 2, ptr %12) #6
  call void @llvm.lifetime.start.p0(i64 2, ptr %13) #6
  store i16 6, ptr %13, align 2, !tbaa !39
  %15 = load ptr, ptr %7, align 8, !tbaa !23
  %16 = load ptr, ptr %15, align 8, !tbaa !11
  %17 = call ptr @OPENSSL_load_u16_le(ptr noundef %12, ptr noundef %16)
  %18 = load ptr, ptr %7, align 8, !tbaa !23
  store ptr %17, ptr %18, align 8, !tbaa !11
  %19 = load ptr, ptr %8, align 8, !tbaa !21
  %20 = load i64, ptr %19, align 8, !tbaa !13
  %21 = sub i64 %20, 2
  store i64 %21, ptr %19, align 8, !tbaa !13
  %22 = load ptr, ptr %7, align 8, !tbaa !23
  %23 = load ptr, ptr %22, align 8, !tbaa !11
  %24 = icmp eq ptr %23, null
  br i1 %24, label %25, label %26

25:                                               ; preds = %5
  store i32 0, ptr %6, align 4
  store i32 1, ptr %14, align 4
  br label %67

26:                                               ; preds = %5
  %27 = load i32, ptr %11, align 4, !tbaa !25
  %28 = icmp ne i32 %27, 0
  br i1 %28, label %29, label %30

29:                                               ; preds = %26
  store i16 3, ptr %13, align 2, !tbaa !39
  br label %30

30:                                               ; preds = %29, %26
  %31 = load i16, ptr %12, align 2, !tbaa !39
  %32 = zext i16 %31 to i32
  %33 = load i16, ptr %13, align 2, !tbaa !39
  %34 = zext i16 %33 to i32
  %35 = srem i32 %32, %34
  switch i32 %35, label %63 [
    i32 0, label %36
    i32 1, label %39
    i32 2, label %42
    i32 3, label %45
    i32 4, label %48
  ]

36:                                               ; preds = %30
  %37 = load ptr, ptr %9, align 8, !tbaa !23
  store ptr @.str.12, ptr %37, align 8, !tbaa !11
  %38 = load ptr, ptr %10, align 8, !tbaa !21
  store i64 1312, ptr %38, align 8, !tbaa !13
  br label %66

39:                                               ; preds = %30
  %40 = load ptr, ptr %9, align 8, !tbaa !23
  store ptr @.str.13, ptr %40, align 8, !tbaa !11
  %41 = load ptr, ptr %10, align 8, !tbaa !21
  store i64 1952, ptr %41, align 8, !tbaa !13
  br label %66

42:                                               ; preds = %30
  %43 = load ptr, ptr %9, align 8, !tbaa !23
  store ptr @.str.14, ptr %43, align 8, !tbaa !11
  %44 = load ptr, ptr %10, align 8, !tbaa !21
  store i64 2592, ptr %44, align 8, !tbaa !13
  br label %66

45:                                               ; preds = %30
  %46 = load ptr, ptr %9, align 8, !tbaa !23
  store ptr @.str.15, ptr %46, align 8, !tbaa !11
  %47 = load ptr, ptr %10, align 8, !tbaa !21
  store i64 33, ptr %47, align 8, !tbaa !13
  br label %66

48:                                               ; preds = %30
  %49 = load ptr, ptr %9, align 8, !tbaa !23
  store ptr @.str.14, ptr %49, align 8, !tbaa !11
  %50 = load ptr, ptr %7, align 8, !tbaa !23
  %51 = load ptr, ptr %50, align 8, !tbaa !11
  %52 = call ptr @OPENSSL_load_u16_le(ptr noundef %12, ptr noundef %51)
  %53 = load ptr, ptr %7, align 8, !tbaa !23
  store ptr %52, ptr %53, align 8, !tbaa !11
  %54 = load ptr, ptr %8, align 8, !tbaa !21
  %55 = load i64, ptr %54, align 8, !tbaa !13
  %56 = sub i64 %55, 2
  store i64 %56, ptr %54, align 8, !tbaa !13
  %57 = load i16, ptr %12, align 2, !tbaa !39
  %58 = zext i16 %57 to i64
  %59 = load ptr, ptr %10, align 8, !tbaa !21
  store i64 %58, ptr %59, align 8, !tbaa !13
  %60 = load ptr, ptr %10, align 8, !tbaa !21
  %61 = load i64, ptr %60, align 8, !tbaa !13
  %62 = urem i64 %61, 2592
  store i64 %62, ptr %60, align 8, !tbaa !13
  br label %66

63:                                               ; preds = %30
  %64 = load ptr, ptr %9, align 8, !tbaa !23
  store ptr null, ptr %64, align 8, !tbaa !11
  %65 = load ptr, ptr %10, align 8, !tbaa !21
  store i64 0, ptr %65, align 8, !tbaa !13
  br label %66

66:                                               ; preds = %63, %48, %45, %42, %39, %36
  store i32 1, ptr %6, align 4
  store i32 1, ptr %14, align 4
  br label %67

67:                                               ; preds = %66, %25
  call void @llvm.lifetime.end.p0(i64 2, ptr %13) #6
  call void @llvm.lifetime.end.p0(i64 2, ptr %12) #6
  %68 = load i32, ptr %6, align 4
  ret i32 %68
}

; Function Attrs: nounwind uwtable
define internal void @create_ml_dsa_raw_key(ptr noundef %0, ptr noundef %1, ptr noundef %2, ptr noundef %3) #0 {
  %5 = alloca ptr, align 8
  %6 = alloca ptr, align 8
  %7 = alloca ptr, align 8
  %8 = alloca ptr, align 8
  %9 = alloca ptr, align 8
  %10 = alloca ptr, align 8
  %11 = alloca i64, align 8
  %12 = alloca [4896 x i8], align 16
  %13 = alloca i32, align 4
  %14 = alloca i32, align 4
  store ptr %0, ptr %5, align 8, !tbaa !23
  store ptr %1, ptr %6, align 8, !tbaa !21
  store ptr %2, ptr %7, align 8, !tbaa !15
  store ptr %3, ptr %8, align 8, !tbaa !15
  call void @llvm.lifetime.start.p0(i64 8, ptr %9) #6
  call void @llvm.lifetime.start.p0(i64 8, ptr %10) #6
  store ptr null, ptr %10, align 8, !tbaa !11
  call void @llvm.lifetime.start.p0(i64 8, ptr %11) #6
  store i64 0, ptr %11, align 8, !tbaa !13
  call void @llvm.lifetime.start.p0(i64 4896, ptr %12) #6
  call void @llvm.lifetime.start.p0(i64 4, ptr %13) #6
  store i32 0, ptr %13, align 4, !tbaa !25
  %15 = load ptr, ptr %5, align 8, !tbaa !23
  %16 = load ptr, ptr %6, align 8, !tbaa !21
  %17 = call i32 @select_keytype_and_size(ptr noundef %15, ptr noundef %16, ptr noundef %10, ptr noundef %11, i32 noundef 0)
  %18 = icmp ne i32 %17, 0
  br i1 %18, label %20, label %19

19:                                               ; preds = %4
  store i32 1, ptr %14, align 4
  br label %59

20:                                               ; preds = %4
  %21 = load ptr, ptr %5, align 8, !tbaa !23
  %22 = load ptr, ptr %21, align 8, !tbaa !11
  %23 = getelementptr inbounds i8, ptr %22, i64 0
  %24 = load i8, ptr %23, align 1, !tbaa !16
  %25 = zext i8 %24 to i32
  %26 = and i32 %25, 1
  %27 = icmp ne i32 %26, 0
  br i1 %27, label %28, label %29

28:                                               ; preds = %20
  store i32 1, ptr %13, align 4, !tbaa !25
  br label %36

29:                                               ; preds = %20
  %30 = load i64, ptr %11, align 8, !tbaa !13
  switch i64 %30, label %34 [
    i64 1312, label %31
    i64 1952, label %32
    i64 2592, label %33
  ]

31:                                               ; preds = %29
  store i64 2560, ptr %11, align 8, !tbaa !13
  br label %35

32:                                               ; preds = %29
  store i64 4032, ptr %11, align 8, !tbaa !13
  br label %35

33:                                               ; preds = %29
  store i64 4896, ptr %11, align 8, !tbaa !13
  br label %35

34:                                               ; preds = %29
  store i32 1, ptr %14, align 4
  br label %59

35:                                               ; preds = %33, %32, %31
  br label %36

36:                                               ; preds = %35, %28
  %37 = getelementptr inbounds [4896 x i8], ptr %12, i64 0, i64 0
  %38 = load i64, ptr %11, align 8, !tbaa !13
  %39 = trunc i64 %38 to i32
  %40 = call i32 @RAND_bytes(ptr noundef %37, i32 noundef %39)
  %41 = icmp ne i32 %40, 0
  br i1 %41, label %43, label %42

42:                                               ; preds = %36
  store i32 1, ptr %14, align 4
  br label %59

43:                                               ; preds = %36
  %44 = load i32, ptr %13, align 4, !tbaa !25
  %45 = icmp eq i32 %44, 1
  br i1 %45, label %46, label %51

46:                                               ; preds = %43
  %47 = load ptr, ptr %10, align 8, !tbaa !11
  %48 = getelementptr inbounds [4896 x i8], ptr %12, i64 0, i64 0
  %49 = load i64, ptr %11, align 8, !tbaa !13
  %50 = call ptr @EVP_PKEY_new_raw_public_key_ex(ptr noundef null, ptr noundef %47, ptr noundef null, ptr noundef %48, i64 noundef %49)
  store ptr %50, ptr %9, align 8, !tbaa !27
  br label %56

51:                                               ; preds = %43
  %52 = load ptr, ptr %10, align 8, !tbaa !11
  %53 = getelementptr inbounds [4896 x i8], ptr %12, i64 0, i64 0
  %54 = load i64, ptr %11, align 8, !tbaa !13
  %55 = call ptr @EVP_PKEY_new_raw_private_key_ex(ptr noundef null, ptr noundef %52, ptr noundef null, ptr noundef %53, i64 noundef %54)
  store ptr %55, ptr %9, align 8, !tbaa !27
  br label %56

56:                                               ; preds = %51, %46
  %57 = load ptr, ptr %9, align 8, !tbaa !27
  %58 = load ptr, ptr %7, align 8, !tbaa !15
  store ptr %57, ptr %58, align 8, !tbaa !15
  store i32 1, ptr %14, align 4
  br label %59

59:                                               ; preds = %56, %42, %34, %19
  call void @llvm.lifetime.end.p0(i64 4, ptr %13) #6
  call void @llvm.lifetime.end.p0(i64 4896, ptr %12) #6
  call void @llvm.lifetime.end.p0(i64 8, ptr %11) #6
  call void @llvm.lifetime.end.p0(i64 8, ptr %10) #6
  call void @llvm.lifetime.end.p0(i64 8, ptr %9) #6
  ret void
}