; Function Attrs: nounwind uwtable
define internal void @create_ml_dsa_raw_key(ptr noundef captures(none) %0, ptr noundef captures(none) %1, ptr noundef writeonly captures(none) %2, ptr readnone captures(none) %3) #1 {
  %5 = alloca [4896 x i8], align 16
  call void @llvm.lifetime.start.p0(i64 4896, ptr nonnull %5) #6
  %6 = load ptr, ptr %0, align 8, !tbaa !11
  %.0.copyload.i25.i = load i16, ptr %6, align 1
  %7 = getelementptr inbounds nuw i8, ptr %6, i64 2
  store ptr %7, ptr %0, align 8, !tbaa !11
  %8 = load i64, ptr %1, align 8, !tbaa !9
  %9 = add i64 %8, -2
  store i64 %9, ptr %1, align 8, !tbaa !9
  %10 = urem i16 %.0.copyload.i25.i, 6
  switch i16 %10, label %19 [
    i16 0, label %select_keytype_and_size.exit
    i16 1, label %11
    i16 2, label %12
    i16 3, label %13
    i16 4, label %14
  ]

11:                                               ; preds = %4
  br label %select_keytype_and_size.exit

12:                                               ; preds = %4
  br label %select_keytype_and_size.exit

13:                                               ; preds = %4
  br label %select_keytype_and_size.exit

14:                                               ; preds = %4
  %.0.copyload.i23.i = load i16, ptr %7, align 1
  %15 = getelementptr inbounds nuw i8, ptr %6, i64 4
  store ptr %15, ptr %0, align 8, !tbaa !11
  %16 = add i64 %8, -4
  store i64 %16, ptr %1, align 8, !tbaa !9
  %17 = urem i16 %.0.copyload.i23.i, 2592
  %18 = zext nneg i16 %17 to i64
  br label %select_keytype_and_size.exit

19:                                               ; preds = %4
  br label %select_keytype_and_size.exit

select_keytype_and_size.exit:                     ; preds = %19, %14, %13, %12, %11, %4
  %20 = phi ptr [ %7, %19 ], [ %15, %14 ], [ %7, %13 ], [ %7, %12 ], [ %7, %11 ], [ %7, %4 ]
  %.012 = phi ptr [ null, %19 ], [ @.str.14, %14 ], [ @.str.15, %13 ], [ @.str.14, %12 ], [ @.str.13, %11 ], [ @.str.12, %4 ]
  %.sink.i = phi i64 [ 0, %19 ], [ %18, %14 ], [ 33, %13 ], [ 2592, %12 ], [ 1952, %11 ], [ 1312, %4 ]
  %21 = load i8, ptr %20, align 1, !tbaa !8
  %22 = and i8 %21, 1
  %.not6.not = icmp eq i8 %22, 0
  br i1 %.not6.not, label %23, label %.thread

23:                                               ; preds = %select_keytype_and_size.exit
  switch i64 %.sink.i, label %35 [
    i64 1312, label %26
    i64 1952, label %24
    i64 2592, label %25
  ]

24:                                               ; preds = %23
  br label %26

25:                                               ; preds = %23
  br label %26

26:                                               ; preds = %23, %24, %25
  %.0 = phi i64 [ 4896, %25 ], [ 4032, %24 ], [ 2560, %23 ]
  %27 = trunc nuw nsw i64 %.0 to i32
  %28 = call i32 @RAND_bytes(ptr noundef nonnull %5, i32 noundef %27) #6
  %.not7 = icmp eq i32 %28, 0
  br i1 %.not7, label %35, label %32

.thread:                                          ; preds = %select_keytype_and_size.exit
  %29 = trunc nuw nsw i64 %.sink.i to i32
  %30 = call i32 @RAND_bytes(ptr noundef nonnull %5, i32 noundef %29) #6
  %.not714 = icmp eq i32 %30, 0
  br i1 %.not714, label %35, label %.thread16

.thread16:                                        ; preds = %.thread
  %31 = call ptr @EVP_PKEY_new_raw_public_key_ex(ptr noundef null, ptr noundef %.012, ptr noundef null, ptr noundef nonnull %5, i64 noundef %.sink.i) #6
  br label %34

32:                                               ; preds = %26
  %33 = call ptr @EVP_PKEY_new_raw_private_key_ex(ptr noundef null, ptr noundef %.012, ptr noundef null, ptr noundef nonnull %5, i64 noundef %.0) #6
  br label %34

34:                                               ; preds = %32, %.thread16
  %.05 = phi ptr [ %31, %.thread16 ], [ %33, %32 ]
  store ptr %.05, ptr %2, align 8, !tbaa !4
  br label %35

35:                                               ; preds = %.thread, %26, %23, %34
  call void @llvm.lifetime.end.p0(i64 4896, ptr nonnull %5) #6
  ret void
}